target datalayout = "e-m:e-p270:32:32-p271:32:32-p272:64:64-i64:64-i128:128-f80:128-n8:16:32:64-S128"
target triple = "x86_64-pc-linux-gnu"

%struct.expert_field = type { i32, i32 }

@hf_nfapi_sfnsf = internal global i32 0, align 4
@ei_invalid_range = internal global %struct.expert_field zeroinitializer, align 4
@.str.1836 = private unnamed_addr constant [51 x i8] c"Invalid sfn/sf value sfn:%u [0..1023] sf:%u [0..9]\00", align 1

; Function Attrs: nounwind uwtable
define internal void @dissect_sfn_sf_value(ptr noundef %0, ptr noundef %1) #0 {
  %3 = alloca ptr, align 8
  %4 = alloca ptr, align 8
  %5 = alloca i32, align 4
  %6 = alloca ptr, align 8
  %7 = alloca i32, align 4
  %8 = alloca i32, align 4
  store ptr %0, ptr %3, align 8
  store ptr %1, ptr %4, align 8
  %9 = load ptr, ptr %3, align 8
  %10 = load i32, ptr @hf_nfapi_sfnsf, align 4
  %11 = call ptr @ptvcursor_add_ret_uint(ptr noundef %9, i32 noundef %10, i32 noundef 2, i32 noundef 0, ptr noundef %5)
  store ptr %11, ptr %6, align 8
  %12 = load i32, ptr %5, align 4
  %13 = lshr i32 %12, 4
  store i32 %13, ptr %7, align 4
  %14 = load i32, ptr %5, align 4
  %15 = and i32 %14, 15
  store i32 %15, ptr %8, align 4
  %16 = load i32, ptr %7, align 4
  %17 = icmp ugt i32 %16, 1023
  br i1 %17, label %21, label %18

18:                                               ; preds = %2
  %19 = load i32, ptr %8, align 4
  %20 = icmp ugt i32 %19, 9
  br i1 %20, label %21, label %27

21:                                               ; preds = %18, %2
  %22 = load ptr, ptr %4, align 8
  %23 = load ptr, ptr %6, align 8
  %24 = load i32, ptr %7, align 4
  %25 = load i32, ptr %8, align 4
  %26 = call ptr (ptr, ptr, ptr, ptr, ...) @expert_add_info_format(ptr noundef %22, ptr noundef %23, ptr noundef @ei_invalid_range, ptr noundef @.str.1836, i32 noundef %24, i32 noundef %25)
  br label %27

27:                                               ; preds = %21, %18
  ret void
}