; Function Attrs: nounwind uwtable
define internal void @dissect_sfn_sf_value(ptr noundef %0, ptr noundef %1) #0 {
  %3 = alloca i32, align 4
  %4 = load i32, ptr @hf_nfapi_sfnsf, align 4
  %5 = call ptr @ptvcursor_add_ret_uint(ptr noundef %0, i32 noundef %4, i32 noundef 2, i32 noundef 0, ptr noundef nonnull %3) #7
  %6 = load i32, ptr %3, align 4
  %7 = and i32 %6, 15
  %8 = icmp ugt i32 %6, 16383
  %9 = icmp samesign ugt i32 %7, 9
  %or.cond = select i1 %8, i1 true, i1 %9
  br i1 %or.cond, label %10, label %13

10:                                               ; preds = %2
  %11 = lshr i32 %6, 4
  %12 = call ptr (ptr, ptr, ptr, ptr, ...) @expert_add_info_format(ptr noundef %1, ptr noundef %5, ptr noundef nonnull @ei_invalid_range, ptr noundef nonnull @.str.1836, i32 noundef %11, i32 noundef %7) #7
  br label %13

13:                                               ; preds = %2, %10
  ret void
}